target datalayout = "e-m:e-p270:32:32-p271:32:32-p272:64:64-i64:64-i128:128-f80:128-n8:16:32:64-S128"
target triple = "x86_64-pc-linux-gnu"

%"class.gmx::Lincs" = type { i32, i32, i32, i32, i32, i32, i32, i32, i32, float, %"class.std::vector", %"class.std::vector.0", %"class.std::vector.0", %"class.std::vector.2", %"class.std::vector.0", %"class.std::vector.0", %"class.std::vector", %"class.std::vector", i32, i32, i8, %"class.std::vector.7", %"class.std::vector.7", %"class.std::vector.0", %"class.std::vector", i32, %"class.std::vector.12", %"class.std::vector.17", i8, i8, i8, %"class.gmx::PaddedVector", %"class.std::vector.7", %"class.std::vector.0", %"class.std::vector.0", %"class.std::vector.0", %"class.std::vector.0", %"class.std::vector.0", %"class.std::optional", %"class.gmx::ArrayRef", %"class.std::optional.27" }
%"class.std::vector.2" = type { %"struct.std::_Vector_base.3" }
%"struct.std::_Vector_base.3" = type { %"struct.std::_Vector_base<(anonymous namespace)::AtomPair, std::allocator<(anonymous namespace)::AtomPair>>::_Vector_impl" }
%"struct.std::_Vector_base<(anonymous namespace)::AtomPair, std::allocator<(anonymous namespace)::AtomPair>>::_Vector_impl" = type { %"struct.std::_Vector_base<(anonymous namespace)::AtomPair, std::allocator<(anonymous namespace)::AtomPair>>::_Vector_impl_data" }
%"struct.std::_Vector_base<(anonymous namespace)::AtomPair, std::allocator<(anonymous namespace)::AtomPair>>::_Vector_impl_data" = type { ptr, ptr, ptr }
%"class.std::vector" = type { %"struct.std::_Vector_base" }
%"struct.std::_Vector_base" = type { %"struct.std::_Vector_base<int, std::allocator<int>>::_Vector_impl" }
%"struct.std::_Vector_base<int, std::allocator<int>>::_Vector_impl" = type { %"struct.std::_Vector_base<int, std::allocator<int>>::_Vector_impl_data" }
%"struct.std::_Vector_base<int, std::allocator<int>>::_Vector_impl_data" = type { ptr, ptr, ptr }
%"class.std::vector.12" = type { %"struct.std::_Vector_base.13" }
%"struct.std::_Vector_base.13" = type { %"struct.std::_Vector_base<(anonymous namespace)::Task, std::allocator<(anonymous namespace)::Task>>::_Vector_impl" }
%"struct.std::_Vector_base<(anonymous namespace)::Task, std::allocator<(anonymous namespace)::Task>>::_Vector_impl" = type { %"struct.std::_Vector_base<(anonymous namespace)::Task, std::allocator<(anonymous namespace)::Task>>::_Vector_impl_data" }
%"struct.std::_Vector_base<(anonymous namespace)::Task, std::allocator<(anonymous namespace)::Task>>::_Vector_impl_data" = type { ptr, ptr, ptr }
%"class.std::vector.17" = type { %"struct.std::_Vector_base.18" }
%"struct.std::_Vector_base.18" = type { %"struct.std::_Vector_base<std::array<unsigned long, 2>, std::allocator<std::array<unsigned long, 2>>>::_Vector_impl" }
%"struct.std::_Vector_base<std::array<unsigned long, 2>, std::allocator<std::array<unsigned long, 2>>>::_Vector_impl" = type { %"struct.std::_Vector_base<std::array<unsigned long, 2>, std::allocator<std::array<unsigned long, 2>>>::_Vector_impl_data" }
%"struct.std::_Vector_base<std::array<unsigned long, 2>, std::allocator<std::array<unsigned long, 2>>>::_Vector_impl_data" = type { ptr, ptr, ptr }
%"class.gmx::PaddedVector" = type { %"class.std::vector.22", %"class.__gnu_cxx::__normal_iterator" }
%"class.std::vector.22" = type { %"struct.std::_Vector_base.23" }
%"struct.std::_Vector_base.23" = type { %"struct.std::_Vector_base<gmx::BasicVector<float>, gmx::Allocator<gmx::BasicVector<float>, gmx::AlignedAllocationPolicy>>::_Vector_impl" }
%"struct.std::_Vector_base<gmx::BasicVector<float>, gmx::Allocator<gmx::BasicVector<float>, gmx::AlignedAllocationPolicy>>::_Vector_impl" = type { %"struct.std::_Vector_base<gmx::BasicVector<float>, gmx::Allocator<gmx::BasicVector<float>, gmx::AlignedAllocationPolicy>>::_Vector_impl_data" }
%"struct.std::_Vector_base<gmx::BasicVector<float>, gmx::Allocator<gmx::BasicVector<float>, gmx::AlignedAllocationPolicy>>::_Vector_impl_data" = type { ptr, ptr, ptr }
%"class.__gnu_cxx::__normal_iterator" = type { ptr }
%"class.std::vector.7" = type { %"struct.std::_Vector_base.8" }
%"struct.std::_Vector_base.8" = type { %"struct.std::_Vector_base<float, std::allocator<float>>::_Vector_impl" }
%"struct.std::_Vector_base<float, std::allocator<float>>::_Vector_impl" = type { %"struct.std::_Vector_base<float, std::allocator<float>>::_Vector_impl_data" }
%"struct.std::_Vector_base<float, std::allocator<float>>::_Vector_impl_data" = type { ptr, ptr, ptr }
%"class.std::vector.0" = type { %"struct.std::_Vector_base.1" }
%"struct.std::_Vector_base.1" = type { %"struct.std::_Vector_base<float, gmx::Allocator<float, gmx::AlignedAllocationPolicy>>::_Vector_impl" }
%"struct.std::_Vector_base<float, gmx::Allocator<float, gmx::AlignedAllocationPolicy>>::_Vector_impl" = type { %"struct.std::_Vector_base<float, gmx::Allocator<float, gmx::AlignedAllocationPolicy>>::_Vector_impl_data" }
%"struct.std::_Vector_base<float, gmx::Allocator<float, gmx::AlignedAllocationPolicy>>::_Vector_impl_data" = type { ptr, ptr, ptr }
%"class.std::optional" = type { %"struct.std::_Optional_base" }
%"struct.std::_Optional_base" = type { %"struct.std::_Optional_payload" }
%"struct.std::_Optional_payload" = type { %"struct.std::_Optional_payload.base", [7 x i8] }
%"struct.std::_Optional_payload.base" = type { %"struct.std::_Optional_payload_base.base" }
%"struct.std::_Optional_payload_base.base" = type <{ %"union.std::_Optional_payload_base<std::function<gmx::ObservablesReducerStatus (gmx::ReductionRequirement)>>::_Storage", i8 }>
%"union.std::_Optional_payload_base<std::function<gmx::ObservablesReducerStatus (gmx::ReductionRequirement)>>::_Storage" = type { %"class.std::function" }
%"class.std::function" = type { %"class.std::_Function_base", ptr }
%"class.std::_Function_base" = type { %"union.std::_Any_data", ptr }
%"union.std::_Any_data" = type { %"union.std::_Nocopy_types" }
%"union.std::_Nocopy_types" = type { { i64, i64 } }
%"class.gmx::ArrayRef" = type { %"struct.gmx::ArrayRefIter", %"struct.gmx::ArrayRefIter" }
%"struct.gmx::ArrayRefIter" = type { ptr }
%"class.std::optional.27" = type { %"struct.std::_Optional_base.28" }
%"struct.std::_Optional_base.28" = type { %"struct.std::_Optional_payload.30" }
%"struct.std::_Optional_payload.30" = type { %"struct.std::_Optional_payload_base.base.32", [7 x i8] }
%"struct.std::_Optional_payload_base.base.32" = type <{ %"union.std::_Optional_payload_base<double>::_Storage", i8 }>
%"union.std::_Optional_payload_base<double>::_Storage" = type { double }
%"struct.std::_Optional_payload_base.31" = type <{ %"union.std::_Optional_payload_base<double>::_Storage", i8, [7 x i8] }>
%class.anon.90 = type { ptr }

; Function Attrs: mustprogress nounwind uwtable
define linkonce_odr void @_ZNSt22_Optional_payload_baseIdE8_StorageIdLb1EEC2IJdEEESt10in_place_tDpOT_(ptr noundef nonnull align 8 dereferenceable(8) %0, ptr noundef nonnull align 8 dereferenceable(8) %1) unnamed_addr #1 comdat align 2 {
  %3 = alloca ptr, align 8
  %4 = alloca ptr, align 8
  store ptr %0, ptr %3, align 8, !tbaa !309
  store ptr %1, ptr %4, align 8, !tbaa !303
  %5 = load ptr, ptr %3, align 8
  %6 = load ptr, ptr %4, align 8, !tbaa !303
  %7 = load double, ptr %6, align 8, !tbaa !9
  store double %7, ptr %5, align 8, !tbaa !338
  ret void
}

; Function Attrs: mustprogress uwtable
define linkonce_odr void @_ZNSt22_Optional_payload_baseIdEC2IJdEEESt10in_place_tDpOT_(ptr noundef nonnull align 8 dereferenceable(9) %0, ptr noundef nonnull align 8 dereferenceable(8) %1) unnamed_addr #0 comdat align 2 {
  %3 = alloca ptr, align 8
  %4 = alloca ptr, align 8
  store ptr %0, ptr %3, align 8, !tbaa !20
  store ptr %1, ptr %4, align 8, !tbaa !303
  %5 = load ptr, ptr %3, align 8
  %6 = getelementptr inbounds nuw %"struct.std::_Optional_payload_base.31", ptr %5, i32 0, i32 0
  %7 = load ptr, ptr %4, align 8, !tbaa !303
  call void @_ZNSt22_Optional_payload_baseIdE8_StorageIdLb1EEC2IJdEEESt10in_place_tDpOT_(ptr noundef nonnull align 8 dereferenceable(8) %6, ptr noundef nonnull align 8 dereferenceable(8) %7)
  %8 = getelementptr inbounds nuw %"struct.std::_Optional_payload_base.31", ptr %5, i32 0, i32 1
  store i8 1, ptr %8, align 8, !tbaa !15
  ret void
}

; Function Attrs: inlinehint mustprogress uwtable
define linkonce_odr void @_ZNSt17_Optional_payloadIdLb1ELb1ELb1EECI2St22_Optional_payload_baseIdEIJdEEESt10in_place_tDpOT_(ptr noundef nonnull align 8 dereferenceable(9) %0, ptr noundef nonnull align 8 dereferenceable(8) %1) unnamed_addr #7 comdat align 2 {
  %3 = alloca ptr, align 8
  %4 = alloca ptr, align 8
  store ptr %0, ptr %3, align 8, !tbaa !307
  store ptr %1, ptr %4, align 8, !tbaa !303
  %5 = load ptr, ptr %3, align 8
  %6 = load ptr, ptr %4, align 8
  call void @_ZNSt22_Optional_payload_baseIdEC2IJdEEESt10in_place_tDpOT_(ptr noundef nonnull align 8 dereferenceable(9) %5, ptr noundef nonnull align 8 dereferenceable(8) %6)
  ret void
}

; Function Attrs: mustprogress nounwind uwtable
define linkonce_odr noundef nonnull align 8 dereferenceable(8) ptr @_ZNK3gmx12ArrayRefIterIdEdeEv(ptr noundef nonnull align 8 dereferenceable(8) %0) #1 comdat align 2 {
  %2 = alloca ptr, align 8
  store ptr %0, ptr %2, align 8, !tbaa !301
  %3 = load ptr, ptr %2, align 8
  %4 = getelementptr inbounds nuw %"struct.gmx::ArrayRefIter", ptr %3, i32 0, i32 0
  %5 = load ptr, ptr %4, align 8, !tbaa !304
  ret ptr %5
}

; Function Attrs: mustprogress nounwind uwtable
define linkonce_odr noundef nonnull align 8 dereferenceable(8) ptr @_ZN3gmx12ArrayRefIterIdEpLEl(ptr noundef nonnull align 8 dereferenceable(8) %0, i64 noundef %1) #1 comdat align 2 {
  %3 = alloca ptr, align 8
  %4 = alloca i64, align 8
  store ptr %0, ptr %3, align 8, !tbaa !301
  store i64 %1, ptr %4, align 8, !tbaa !41
  %5 = load ptr, ptr %3, align 8
  %6 = load i64, ptr %4, align 8, !tbaa !41
  %7 = getelementptr inbounds nuw %"struct.gmx::ArrayRefIter", ptr %5, i32 0, i32 0
  %8 = load ptr, ptr %7, align 8, !tbaa !304
  %9 = getelementptr inbounds double, ptr %8, i64 %6
  store ptr %9, ptr %7, align 8, !tbaa !304
  ret ptr %5
}

; Function Attrs: mustprogress nounwind uwtable
define linkonce_odr noundef nonnull align 8 dereferenceable(8) ptr @_ZNK3gmx5boost14stl_interfaces2v118iterator_interfaceINS_12ArrayRefIterIdEESt26random_access_iterator_tagdRdPdlvE7derivedEv(ptr noundef nonnull align 1 dereferenceable(1) %0) #1 comdat align 2 {
  %2 = alloca ptr, align 8
  store ptr %0, ptr %2, align 8, !tbaa !354
  %3 = load ptr, ptr %2, align 8
  ret ptr %3
}

; Function Attrs: noinline noreturn nounwind uwtable
define linkonce_odr hidden void @__clang_call_terminate(ptr noundef %0) #12 comdat {
  %2 = call ptr @__cxa_begin_catch(ptr %0) #16
  call void @_ZSt9terminatev() #35
  unreachable
}

; Function Attrs: mustprogress uwtable
define linkonce_odr void @_ZNSt14_Optional_baseIdLb1ELb1EEC2IJdETnNSt9enable_ifIX18is_constructible_vIdDpT_EEbE4typeELb0EEESt10in_place_tDpOS3_(ptr noundef nonnull align 8 dereferenceable(16) %0, ptr noundef nonnull align 8 dereferenceable(8) %1) unnamed_addr #0 comdat align 2 {
  %3 = alloca ptr, align 8
  %4 = alloca ptr, align 8
  store ptr %0, ptr %3, align 8, !tbaa !305
  store ptr %1, ptr %4, align 8, !tbaa !303
  %5 = load ptr, ptr %3, align 8
  %6 = getelementptr inbounds nuw %"struct.std::_Optional_base.28", ptr %5, i32 0, i32 0
  %7 = load ptr, ptr %4, align 8, !tbaa !303
  call void @_ZNSt17_Optional_payloadIdLb1ELb1ELb1EECI2St22_Optional_payload_baseIdEIJdEEESt10in_place_tDpOT_(ptr noundef nonnull align 8 dereferenceable(9) %6, ptr noundef nonnull align 8 dereferenceable(8) %7)
  ret void
}

; Function Attrs: mustprogress nounwind uwtable
define linkonce_odr noundef nonnull align 8 dereferenceable(8) ptr @_ZNK3gmx5boost14stl_interfaces2v118iterator_interfaceINS_12ArrayRefIterIdEESt26random_access_iterator_tagdRdPdlvEixIS5_EEDTcmpLclsr3stdE7declvalIRT_EEfp_declsr3stdE7declvalISC_EEEl(ptr noundef nonnull align 1 dereferenceable(1) %0, i64 noundef %1) #1 comdat align 2 {
  %3 = alloca ptr, align 8
  %4 = alloca i64, align 8
  %5 = alloca %"struct.gmx::ArrayRefIter", align 8
  store ptr %0, ptr %3, align 8, !tbaa !354
  store i64 %1, ptr %4, align 8, !tbaa !41
  %6 = load ptr, ptr %3, align 8
  call void @llvm.lifetime.start.p0(i64 8, ptr %5) #16
  %7 = call noundef nonnull align 8 dereferenceable(8) ptr @_ZNK3gmx5boost14stl_interfaces2v118iterator_interfaceINS_12ArrayRefIterIdEESt26random_access_iterator_tagdRdPdlvE7derivedEv(ptr noundef nonnull align 1 dereferenceable(1) %6) #16
  call void @llvm.memcpy.p0.p0.i64(ptr align 8 %5, ptr align 8 %7, i64 8, i1 false)
  %8 = load i64, ptr %4, align 8, !tbaa !41
  %9 = call noundef nonnull align 8 dereferenceable(8) ptr @_ZN3gmx12ArrayRefIterIdEpLEl(ptr noundef nonnull align 8 dereferenceable(8) %5, i64 noundef %8) #16
  %10 = call noundef nonnull align 8 dereferenceable(8) ptr @_ZNK3gmx12ArrayRefIterIdEdeEv(ptr noundef nonnull align 8 dereferenceable(8) %5) #16
  call void @llvm.lifetime.end.p0(i64 8, ptr %5) #16
  ret ptr %10
}

; Function Attrs: mustprogress nounwind uwtable
define linkonce_odr void @_ZNSt8optionalIdEC2IdTnNSt9enable_ifIX7__and_vISt6__not_ISt7is_sameIS0_NSt9remove_cvINSt16remove_referenceIT_E4typeEE4typeEEES3_IS4_ISt10in_place_tSB_EESt16is_constructibleIdJS7_EESt14is_convertibleIS7_dEEEbE4typeELb1EEEOS7_(ptr noundef nonnull align 8 dereferenceable(16) %0, ptr noundef nonnull align 8 dereferenceable(8) %1) unnamed_addr #1 comdat align 2 personality ptr @__gxx_personality_v0 {
  %3 = alloca ptr, align 8
  %4 = alloca ptr, align 8
  store ptr %0, ptr %3, align 8, !tbaa !11
  store ptr %1, ptr %4, align 8, !tbaa !303
  %5 = load ptr, ptr %3, align 8
  %6 = load ptr, ptr %4, align 8, !tbaa !303
  invoke void @_ZNSt14_Optional_baseIdLb1ELb1EEC2IJdETnNSt9enable_ifIX18is_constructible_vIdDpT_EEbE4typeELb0EEESt10in_place_tDpOS3_(ptr noundef nonnull align 8 dereferenceable(16) %5, ptr noundef nonnull align 8 dereferenceable(8) %6)
          to label %7 unwind label %8

7:                                                ; preds = %2
  ret void

8:                                                ; preds = %2
  %9 = landingpad { ptr, i32 }
          catch ptr null
  %10 = extractvalue { ptr, i32 } %9, 0
  call void @__clang_call_terminate(ptr %10) #35
  unreachable
}

; Function Attrs: mustprogress nounwind uwtable
define linkonce_odr noundef nonnull align 8 dereferenceable(8) ptr @_ZNK3gmx8ArrayRefIdEixEm(ptr noundef nonnull align 8 dereferenceable(16) %0, i64 noundef %1) #1 comdat align 2 {
  %3 = alloca ptr, align 8
  %4 = alloca i64, align 8
  store ptr %0, ptr %3, align 8, !tbaa !197
  store i64 %1, ptr %4, align 8, !tbaa !41
  %5 = load ptr, ptr %3, align 8
  %6 = getelementptr inbounds nuw %"class.gmx::ArrayRef", ptr %5, i32 0, i32 0
  %7 = load i64, ptr %4, align 8, !tbaa !41
  %8 = call noundef nonnull align 8 dereferenceable(8) ptr @_ZNK3gmx5boost14stl_interfaces2v118iterator_interfaceINS_12ArrayRefIterIdEESt26random_access_iterator_tagdRdPdlvEixIS5_EEDTcmpLclsr3stdE7declvalIRT_EEfp_declsr3stdE7declvalISC_EEEl(ptr noundef nonnull align 1 dereferenceable(1) %6, i64 noundef %7) #16
  ret ptr %8
}

; Function Attrs: inlinehint mustprogress uwtable
define internal void @"_ZZN3gmx10init_lincsEP8_IO_FILERK10gmx_mtop_tiNS_8ArrayRefIKNS_11ListOfListsIiEEEEbiiPNS_25ObservablesReducerBuilderEENK3$_1clEl"(ptr noundef nonnull align 8 dereferenceable(8) %0, i64 noundef %1) #7 align 2 {
  %3 = alloca ptr, align 8
  %4 = alloca i64, align 8
  %5 = alloca %"class.std::optional.27", align 8
  %6 = alloca double, align 8
  store ptr %0, ptr %3, align 8, !tbaa !174
  store i64 %1, ptr %4, align 8, !tbaa !41
  %7 = load ptr, ptr %3, align 8
  %8 = getelementptr inbounds nuw %class.anon.90, ptr %7, i32 0, i32 0
  %9 = load ptr, ptr %8, align 8, !tbaa !147
  %10 = getelementptr inbounds nuw %"class.gmx::Lincs", ptr %9, i32 0, i32 39
  %11 = call noundef nonnull align 8 dereferenceable(8) ptr @_ZNK3gmx8ArrayRefIdEixEm(ptr noundef nonnull align 8 dereferenceable(16) %10, i64 noundef 0)
  %12 = load double, ptr %11, align 8, !tbaa !9
  %13 = fcmp ogt double %12, 0.000000e+00
  br i1 %13, label %14, label %30

14:                                               ; preds = %2
  call void @llvm.lifetime.start.p0(i64 16, ptr %5) #16
  call void @llvm.lifetime.start.p0(i64 8, ptr %6) #16
  %15 = getelementptr inbounds nuw %class.anon.90, ptr %7, i32 0, i32 0
  %16 = load ptr, ptr %15, align 8, !tbaa !147
  %17 = getelementptr inbounds nuw %"class.gmx::Lincs", ptr %16, i32 0, i32 39
  %18 = call noundef nonnull align 8 dereferenceable(8) ptr @_ZNK3gmx8ArrayRefIdEixEm(ptr noundef nonnull align 8 dereferenceable(16) %17, i64 noundef 1)
  %19 = load double, ptr %18, align 8, !tbaa !9
  %20 = getelementptr inbounds nuw %class.anon.90, ptr %7, i32 0, i32 0
  %21 = load ptr, ptr %20, align 8, !tbaa !147
  %22 = getelementptr inbounds nuw %"class.gmx::Lincs", ptr %21, i32 0, i32 39
  %23 = call noundef nonnull align 8 dereferenceable(8) ptr @_ZNK3gmx8ArrayRefIdEixEm(ptr noundef nonnull align 8 dereferenceable(16) %22, i64 noundef 0)
  %24 = load double, ptr %23, align 8, !tbaa !9
  %25 = fdiv double %19, %24
  %26 = call double @sqrt(double noundef %25) #16, !tbaa !32
  store double %26, ptr %6, align 8, !tbaa !9
  call void @_ZNSt8optionalIdEC2IdTnNSt9enable_ifIX7__and_vISt6__not_ISt7is_sameIS0_NSt9remove_cvINSt16remove_referenceIT_E4typeEE4typeEEES3_IS4_ISt10in_place_tSB_EESt16is_constructibleIdJS7_EESt14is_convertibleIS7_dEEEbE4typeELb1EEEOS7_(ptr noundef nonnull align 8 dereferenceable(16) %5, ptr noundef nonnull align 8 dereferenceable(8) %6) #16
  %27 = getelementptr inbounds nuw %class.anon.90, ptr %7, i32 0, i32 0
  %28 = load ptr, ptr %27, align 8, !tbaa !147
  %29 = getelementptr inbounds nuw %"class.gmx::Lincs", ptr %28, i32 0, i32 40
  call void @llvm.memcpy.p0.p0.i64(ptr align 8 %29, ptr align 8 %5, i64 16, i1 false)
  call void @llvm.lifetime.end.p0(i64 8, ptr %6) #16
  call void @llvm.lifetime.end.p0(i64 16, ptr %5) #16
  br label %30

30:                                               ; preds = %14, %2
  ret void
}

; Function Attrs: mustprogress nounwind uwtable
define linkonce_odr noundef ptr @_ZNKSt9_Any_data9_M_accessEv(ptr noundef nonnull align 8 dereferenceable(16) %0) #1 comdat align 2 {
  %2 = alloca ptr, align 8
  store ptr %0, ptr %2, align 8, !tbaa !339
  %3 = load ptr, ptr %2, align 8
  %4 = getelementptr inbounds [16 x i8], ptr %3, i64 0, i64 0
  ret ptr %4
}

; Function Attrs: mustprogress uwtable
define internal void @"_ZSt13__invoke_implIvRZN3gmx10init_lincsEP8_IO_FILERK10gmx_mtop_tiNS0_8ArrayRefIKNS0_11ListOfListsIiEEEEbiiPNS0_25ObservablesReducerBuilderEE3$_1JlEET_St14__invoke_otherOT0_DpOT1_"(ptr noundef nonnull align 8 dereferenceable(8) %0, ptr noundef nonnull align 8 dereferenceable(8) %1) #0 {
  %3 = alloca ptr, align 8
  %4 = alloca ptr, align 8
  store ptr %0, ptr %3, align 8, !tbaa !174
  store ptr %1, ptr %4, align 8, !tbaa !329
  %5 = load ptr, ptr %3, align 8, !tbaa !174
  %6 = load ptr, ptr %4, align 8, !tbaa !329
  %7 = load i64, ptr %6, align 8, !tbaa !41
  call void @"_ZZN3gmx10init_lincsEP8_IO_FILERK10gmx_mtop_tiNS_8ArrayRefIKNS_11ListOfListsIiEEEEbiiPNS_25ObservablesReducerBuilderEENK3$_1clEl"(ptr noundef nonnull align 8 dereferenceable(8) %5, i64 noundef %7)
  ret void
}

; Function Attrs: mustprogress nounwind uwtable
define internal noundef nonnull align 8 dereferenceable(8) ptr @"_ZNKSt9_Any_data9_M_accessIZN3gmx10init_lincsEP8_IO_FILERK10gmx_mtop_tiNS1_8ArrayRefIKNS1_11ListOfListsIiEEEEbiiPNS1_25ObservablesReducerBuilderEE3$_1EERKT_v"(ptr noundef nonnull align 8 dereferenceable(16) %0) #1 align 2 {
  %2 = alloca ptr, align 8
  store ptr %0, ptr %2, align 8, !tbaa !339
  %3 = load ptr, ptr %2, align 8
  %4 = call noundef ptr @_ZNKSt9_Any_data9_M_accessEv(ptr noundef nonnull align 8 dereferenceable(16) %3) #16
  ret ptr %4
}

; Function Attrs: mustprogress uwtable
define internal void @"_ZSt10__invoke_rIvRZN3gmx10init_lincsEP8_IO_FILERK10gmx_mtop_tiNS0_8ArrayRefIKNS0_11ListOfListsIiEEEEbiiPNS0_25ObservablesReducerBuilderEE3$_1JlEENSt9enable_ifIX16is_invocable_r_vIT_T0_DpT1_EESG_E4typeEOSH_DpOSI_"(ptr noundef nonnull align 8 dereferenceable(8) %0, ptr noundef nonnull align 8 dereferenceable(8) %1) #0 {
  %3 = alloca ptr, align 8
  %4 = alloca ptr, align 8
  store ptr %0, ptr %3, align 8, !tbaa !174
  store ptr %1, ptr %4, align 8, !tbaa !329
  %5 = load ptr, ptr %3, align 8, !tbaa !174
  %6 = load ptr, ptr %4, align 8, !tbaa !329
  call void @"_ZSt13__invoke_implIvRZN3gmx10init_lincsEP8_IO_FILERK10gmx_mtop_tiNS0_8ArrayRefIKNS0_11ListOfListsIiEEEEbiiPNS0_25ObservablesReducerBuilderEE3$_1JlEET_St14__invoke_otherOT0_DpOT1_"(ptr noundef nonnull align 8 dereferenceable(8) %5, ptr noundef nonnull align 8 dereferenceable(8) %6)
  ret void
}

; Function Attrs: mustprogress nounwind uwtable
define internal noundef ptr @"_ZNSt14_Function_base13_Base_managerIZN3gmx10init_lincsEP8_IO_FILERK10gmx_mtop_tiNS1_8ArrayRefIKNS1_11ListOfListsIiEEEEbiiPNS1_25ObservablesReducerBuilderEE3$_1E14_M_get_pointerERKSt9_Any_data"(ptr noundef nonnull align 8 dereferenceable(16) %0) #1 align 2 {
  %2 = alloca ptr, align 8
  %3 = alloca ptr, align 8
  store ptr %0, ptr %2, align 8, !tbaa !339
  call void @llvm.lifetime.start.p0(i64 8, ptr %3) #16
  %4 = load ptr, ptr %2, align 8, !tbaa !339
  %5 = call noundef nonnull align 8 dereferenceable(8) ptr @"_ZNKSt9_Any_data9_M_accessIZN3gmx10init_lincsEP8_IO_FILERK10gmx_mtop_tiNS1_8ArrayRefIKNS1_11ListOfListsIiEEEEbiiPNS1_25ObservablesReducerBuilderEE3$_1EERKT_v"(ptr noundef nonnull align 8 dereferenceable(16) %4) #16
  store ptr %5, ptr %3, align 8, !tbaa !174
  %6 = load ptr, ptr %3, align 8, !tbaa !174
  call void @llvm.lifetime.end.p0(i64 8, ptr %3) #16
  ret ptr %6
}

; Function Attrs: mustprogress uwtable
define internal void @"_ZNSt17_Function_handlerIFvlEZN3gmx10init_lincsEP8_IO_FILERK10gmx_mtop_tiNS1_8ArrayRefIKNS1_11ListOfListsIiEEEEbiiPNS1_25ObservablesReducerBuilderEE3$_1E9_M_invokeERKSt9_Any_dataOl"(ptr noundef nonnull align 8 dereferenceable(16) %0, ptr noundef nonnull align 8 dereferenceable(8) %1) #0 align 2 {
  %3 = alloca ptr, align 8
  %4 = alloca ptr, align 8
  store ptr %0, ptr %3, align 8, !tbaa !339
  store ptr %1, ptr %4, align 8, !tbaa !329
  %5 = load ptr, ptr %3, align 8, !tbaa !339
  %6 = call noundef ptr @"_ZNSt14_Function_base13_Base_managerIZN3gmx10init_lincsEP8_IO_FILERK10gmx_mtop_tiNS1_8ArrayRefIKNS1_11ListOfListsIiEEEEbiiPNS1_25ObservablesReducerBuilderEE3$_1E14_M_get_pointerERKSt9_Any_data"(ptr noundef nonnull align 8 dereferenceable(16) %5) #16
  %7 = load ptr, ptr %4, align 8, !tbaa !329
  call void @"_ZSt10__invoke_rIvRZN3gmx10init_lincsEP8_IO_FILERK10gmx_mtop_tiNS0_8ArrayRefIKNS0_11ListOfListsIiEEEEbiiPNS0_25ObservablesReducerBuilderEE3$_1JlEENSt9enable_ifIX16is_invocable_r_vIT_T0_DpT1_EESG_E4typeEOSH_DpOSI_"(ptr noundef nonnull align 8 dereferenceable(8) %6, ptr noundef nonnull align 8 dereferenceable(8) %7)
  ret void
}