; Function Attrs: mustprogress nofree nounwind willreturn memory(readwrite, inaccessiblemem: write) uwtable
define internal void @"_ZNSt17_Function_handlerIFvlEZN3gmx10init_lincsEP8_IO_FILERK10gmx_mtop_tiNS1_8ArrayRefIKNS1_11ListOfListsIiEEEEbiiPNS1_25ObservablesReducerBuilderEE3$_1E9_M_invokeERKSt9_Any_dataOl"(ptr noundef nonnull readonly align 8 captures(none) dereferenceable(16) %0, ptr nonnull readonly align 8 captures(none) %1) #15 align 2 personality ptr @__gxx_personality_v0 {
  %.val = load ptr, ptr %0, align 8, !tbaa !138
  %3 = getelementptr inbounds nuw i8, ptr %.val, i64 624
  %4 = load i64, ptr %3, align 8
  %5 = inttoptr i64 %4 to ptr
  %6 = load double, ptr %5, align 8, !tbaa !11
  %7 = fcmp ogt double %6, 0.000000e+00
  br i1 %7, label %8, label %"_ZSt10__invoke_rIvRZN3gmx10init_lincsEP8_IO_FILERK10gmx_mtop_tiNS0_8ArrayRefIKNS0_11ListOfListsIiEEEEbiiPNS0_25ObservablesReducerBuilderEE3$_1JlEENSt9enable_ifIX16is_invocable_r_vIT_T0_DpT1_EESG_E4typeEOSH_DpOSI_.exit"

8:                                                ; preds = %2
  %9 = getelementptr inbounds nuw i8, ptr %5, i64 8
  %10 = load double, ptr %9, align 8, !tbaa !11
  %11 = fdiv double %10, %6
  %12 = tail call double @sqrt(double noundef %11) #20, !tbaa !18
  %13 = getelementptr inbounds nuw i8, ptr %.val, i64 640
  store double %12, ptr %13, align 8
  %.sroa.4.0..sroa_idx.i.i.i = getelementptr inbounds nuw i8, ptr %.val, i64 648
  store i8 1, ptr %.sroa.4.0..sroa_idx.i.i.i, align 8
  br label %"_ZSt10__invoke_rIvRZN3gmx10init_lincsEP8_IO_FILERK10gmx_mtop_tiNS0_8ArrayRefIKNS0_11ListOfListsIiEEEEbiiPNS0_25ObservablesReducerBuilderEE3$_1JlEENSt9enable_ifIX16is_invocable_r_vIT_T0_DpT1_EESG_E4typeEOSH_DpOSI_.exit"

"_ZSt10__invoke_rIvRZN3gmx10init_lincsEP8_IO_FILERK10gmx_mtop_tiNS0_8ArrayRefIKNS0_11ListOfListsIiEEEEbiiPNS0_25ObservablesReducerBuilderEE3$_1JlEENSt9enable_ifIX16is_invocable_r_vIT_T0_DpT1_EESG_E4typeEOSH_DpOSI_.exit": ; preds = %2, %8
  ret void
}